target datalayout = "e-m:e-p270:32:32-p271:32:32-p272:64:64-i64:64-i128:128-f80:128-n8:16:32:64-S128"
target triple = "x86_64-pc-linux-gnu"

@output_prefix = internal global ptr null, align 8
@output_dir = internal global ptr null, align 8

; Function Attrs: nounwind uwtable
define void @pmix_output_set_output_file_info(ptr noundef %0, ptr noundef %1, ptr noundef %2, ptr noundef %3) #0 {
  %5 = alloca ptr, align 8
  %6 = alloca ptr, align 8
  %7 = alloca ptr, align 8
  %8 = alloca ptr, align 8
  store ptr %0, ptr %5, align 8, !tbaa !32
  store ptr %1, ptr %6, align 8, !tbaa !32
  store ptr %2, ptr %7, align 8, !tbaa !79
  store ptr %3, ptr %8, align 8, !tbaa !79
  %9 = load ptr, ptr %7, align 8, !tbaa !79
  %10 = icmp ne ptr null, %9
  br i1 %10, label %11, label %15

11:                                               ; preds = %4
  %12 = load ptr, ptr @output_dir, align 8, !tbaa !32
  %13 = call noalias ptr @strdup(ptr noundef %12) #12
  %14 = load ptr, ptr %7, align 8, !tbaa !79
  store ptr %13, ptr %14, align 8, !tbaa !32
  br label %15

15:                                               ; preds = %11, %4
  %16 = load ptr, ptr %8, align 8, !tbaa !79
  %17 = icmp ne ptr null, %16
  br i1 %17, label %18, label %22

18:                                               ; preds = %15
  %19 = load ptr, ptr @output_prefix, align 8, !tbaa !32
  %20 = call noalias ptr @strdup(ptr noundef %19) #12
  %21 = load ptr, ptr %8, align 8, !tbaa !79
  store ptr %20, ptr %21, align 8, !tbaa !32
  br label %22

22:                                               ; preds = %18, %15
  %23 = load ptr, ptr %5, align 8, !tbaa !32
  %24 = icmp ne ptr null, %23
  br i1 %24, label %25, label %29

25:                                               ; preds = %22
  %26 = load ptr, ptr @output_dir, align 8, !tbaa !32
  call void @free(ptr noundef %26) #12
  %27 = load ptr, ptr %5, align 8, !tbaa !32
  %28 = call noalias ptr @strdup(ptr noundef %27) #12
  store ptr %28, ptr @output_dir, align 8, !tbaa !32
  br label %29

29:                                               ; preds = %25, %22
  %30 = load ptr, ptr %6, align 8, !tbaa !32
  %31 = icmp ne ptr null, %30
  br i1 %31, label %32, label %36

32:                                               ; preds = %29
  %33 = load ptr, ptr @output_prefix, align 8, !tbaa !32
  call void @free(ptr noundef %33) #12
  %34 = load ptr, ptr %6, align 8, !tbaa !32
  %35 = call noalias ptr @strdup(ptr noundef %34) #12
  store ptr %35, ptr @output_prefix, align 8, !tbaa !32
  br label %36

36:                                               ; preds = %32, %29
  ret void
}