; Function Attrs: mustprogress nounwind willreturn uwtable
define void @pmix_output_set_output_file_info(ptr noundef readonly captures(address_is_null) %0, ptr noundef readonly captures(address_is_null) %1, ptr noundef writeonly captures(address_is_null) %2, ptr noundef writeonly captures(address_is_null) %3) local_unnamed_addr #1 {
  %.not = icmp eq ptr %2, null
  br i1 %.not, label %8, label %5

5:                                                ; preds = %4
  %6 = load ptr, ptr @output_dir, align 8, !tbaa !16
  %7 = tail call noalias ptr @strdup(ptr noundef %6) #22
  store ptr %7, ptr %2, align 8, !tbaa !16
  br label %8

8:                                                ; preds = %5, %4
  %.not11 = icmp eq ptr %3, null
  br i1 %.not11, label %12, label %9

9:                                                ; preds = %8
  %10 = load ptr, ptr @output_prefix, align 8, !tbaa !16
  %11 = tail call noalias ptr @strdup(ptr noundef %10) #22
  store ptr %11, ptr %3, align 8, !tbaa !16
  br label %12

12:                                               ; preds = %9, %8
  %.not12 = icmp eq ptr %0, null
  br i1 %.not12, label %16, label %13

13:                                               ; preds = %12
  %14 = load ptr, ptr @output_dir, align 8, !tbaa !16
  tail call void @free(ptr noundef %14) #22
  %15 = tail call noalias ptr @strdup(ptr noundef nonnull %0) #22
  store ptr %15, ptr @output_dir, align 8, !tbaa !16
  br label %16

16:                                               ; preds = %13, %12
  %.not13 = icmp eq ptr %1, null
  br i1 %.not13, label %20, label %17

17:                                               ; preds = %16
  %18 = load ptr, ptr @output_prefix, align 8, !tbaa !16
  tail call void @free(ptr noundef %18) #22
  %19 = tail call noalias ptr @strdup(ptr noundef nonnull %1) #22
  store ptr %19, ptr @output_prefix, align 8, !tbaa !16
  br label %20

20:                                               ; preds = %17, %16
  ret void
}